target datalayout = "e-m:e-p270:32:32-p271:32:32-p272:64:64-i64:64-i128:128-f80:128-n8:16:32:64-S128"
target triple = "x86_64-pc-linux-gnu"

%struct.ASN1_ENCODING_st = type { ptr, i64, i32 }
%struct.X509_crl_st = type { ptr, ptr, ptr, i32, i32, ptr, ptr, i32, i32, ptr, ptr, [20 x i8], ptr, ptr, ptr }
%struct.X509_crl_info_st = type { ptr, ptr, ptr, ptr, ptr, ptr, ptr, %struct.ASN1_ENCODING_st }
%struct.evp_pkey_st = type { i32, i32, %union.anon, ptr }
%union.anon = type { ptr }
%struct.X509_algor_st = type { ptr, ptr }

; Function Attrs: nounwind uwtable
define internal i32 @check_suite_b(ptr noundef %0, i32 noundef %1, ptr noundef %2) #0 {
  %4 = alloca i32, align 4
  %5 = alloca ptr, align 8
  %6 = alloca i32, align 4
  %7 = alloca ptr, align 8
  %8 = alloca ptr, align 8
  %9 = alloca i32, align 4
  %10 = alloca i32, align 4
  store ptr %0, ptr %5, align 8, !tbaa !79
  store i32 %1, ptr %6, align 4, !tbaa !35
  store ptr %2, ptr %7, align 8, !tbaa !84
  call void @llvm.lifetime.start.p0(i64 8, ptr %8) #5
  store ptr null, ptr %8, align 8, !tbaa !86
  call void @llvm.lifetime.start.p0(i64 4, ptr %9) #5
  %11 = load ptr, ptr %5, align 8, !tbaa !79
  %12 = icmp ne ptr %11, null
  br i1 %12, label %13, label %23

13:                                               ; preds = %3
  %14 = load ptr, ptr %5, align 8, !tbaa !79
  %15 = getelementptr inbounds nuw %struct.evp_pkey_st, ptr %14, i32 0, i32 1
  %16 = load i32, ptr %15, align 4, !tbaa !88
  %17 = icmp eq i32 %16, 408
  br i1 %17, label %18, label %23

18:                                               ; preds = %13
  %19 = load ptr, ptr %5, align 8, !tbaa !79
  %20 = getelementptr inbounds nuw %struct.evp_pkey_st, ptr %19, i32 0, i32 2
  %21 = load ptr, ptr %20, align 8, !tbaa !49
  %22 = call ptr @EC_KEY_get0_group(ptr noundef %21)
  store ptr %22, ptr %8, align 8, !tbaa !86
  br label %23

23:                                               ; preds = %18, %13, %3
  %24 = load ptr, ptr %8, align 8, !tbaa !86
  %25 = icmp ne ptr %24, null
  br i1 %25, label %27, label %26

26:                                               ; preds = %23
  store i32 57, ptr %4, align 4
  store i32 1, ptr %10, align 4
  br label %69

27:                                               ; preds = %23
  %28 = load ptr, ptr %8, align 8, !tbaa !86
  %29 = call i32 @EC_GROUP_get_curve_name(ptr noundef %28)
  store i32 %29, ptr %9, align 4, !tbaa !35
  %30 = load i32, ptr %9, align 4, !tbaa !35
  %31 = icmp eq i32 %30, 715
  br i1 %31, label %32, label %49

32:                                               ; preds = %27
  %33 = load i32, ptr %6, align 4, !tbaa !35
  %34 = icmp ne i32 %33, -1
  br i1 %34, label %35, label %39

35:                                               ; preds = %32
  %36 = load i32, ptr %6, align 4, !tbaa !35
  %37 = icmp ne i32 %36, 795
  br i1 %37, label %38, label %39

38:                                               ; preds = %35
  store i32 59, ptr %4, align 4
  store i32 1, ptr %10, align 4
  br label %69

39:                                               ; preds = %35, %32
  %40 = load ptr, ptr %7, align 8, !tbaa !84
  %41 = load i64, ptr %40, align 8, !tbaa !44
  %42 = and i64 %41, 131072
  %43 = icmp ne i64 %42, 0
  br i1 %43, label %45, label %44

44:                                               ; preds = %39
  store i32 60, ptr %4, align 4
  store i32 1, ptr %10, align 4
  br label %69

45:                                               ; preds = %39
  %46 = load ptr, ptr %7, align 8, !tbaa !84
  %47 = load i64, ptr %46, align 8, !tbaa !44
  %48 = and i64 %47, -65537
  store i64 %48, ptr %46, align 8, !tbaa !44
  br label %68

49:                                               ; preds = %27
  %50 = load i32, ptr %9, align 4, !tbaa !35
  %51 = icmp eq i32 %50, 415
  br i1 %51, label %52, label %66

52:                                               ; preds = %49
  %53 = load i32, ptr %6, align 4, !tbaa !35
  %54 = icmp ne i32 %53, -1
  br i1 %54, label %55, label %59

55:                                               ; preds = %52
  %56 = load i32, ptr %6, align 4, !tbaa !35
  %57 = icmp ne i32 %56, 794
  br i1 %57, label %58, label %59

58:                                               ; preds = %55
  store i32 59, ptr %4, align 4
  store i32 1, ptr %10, align 4
  br label %69

59:                                               ; preds = %55, %52
  %60 = load ptr, ptr %7, align 8, !tbaa !84
  %61 = load i64, ptr %60, align 8, !tbaa !44
  %62 = and i64 %61, 65536
  %63 = icmp ne i64 %62, 0
  br i1 %63, label %65, label %64

64:                                               ; preds = %59
  store i32 60, ptr %4, align 4
  store i32 1, ptr %10, align 4
  br label %69

65:                                               ; preds = %59
  br label %67

66:                                               ; preds = %49
  store i32 58, ptr %4, align 4
  store i32 1, ptr %10, align 4
  br label %69

67:                                               ; preds = %65
  br label %68

68:                                               ; preds = %67, %45
  store i32 0, ptr %4, align 4
  store i32 1, ptr %10, align 4
  br label %69

69:                                               ; preds = %68, %66, %64, %58, %44, %38, %26
  call void @llvm.lifetime.end.p0(i64 4, ptr %9) #5
  call void @llvm.lifetime.end.p0(i64 8, ptr %8) #5
  %70 = load i32, ptr %4, align 4
  ret i32 %70
}

; Function Attrs: nounwind uwtable
define hidden i32 @X509_CRL_check_suiteb(ptr noundef %0, ptr noundef %1, i64 noundef %2) #0 {
  %4 = alloca i32, align 4
  %5 = alloca ptr, align 8
  %6 = alloca ptr, align 8
  %7 = alloca i64, align 8
  %8 = alloca i32, align 4
  %9 = alloca i32, align 4
  store ptr %0, ptr %5, align 8, !tbaa !51
  store ptr %1, ptr %6, align 8, !tbaa !79
  store i64 %2, ptr %7, align 8, !tbaa !44
  call void @llvm.lifetime.start.p0(i64 4, ptr %8) #5
  %10 = load i64, ptr %7, align 8, !tbaa !44
  %11 = and i64 %10, 196608
  %12 = icmp ne i64 %11, 0
  br i1 %12, label %14, label %13

13:                                               ; preds = %3
  store i32 0, ptr %4, align 4
  store i32 1, ptr %9, align 4
  br label %26

14:                                               ; preds = %3
  %15 = load ptr, ptr %5, align 8, !tbaa !51
  %16 = getelementptr inbounds nuw %struct.X509_crl_st, ptr %15, i32 0, i32 0
  %17 = load ptr, ptr %16, align 8, !tbaa !53
  %18 = getelementptr inbounds nuw %struct.X509_crl_info_st, ptr %17, i32 0, i32 1
  %19 = load ptr, ptr %18, align 8, !tbaa !91
  %20 = getelementptr inbounds nuw %struct.X509_algor_st, ptr %19, i32 0, i32 0
  %21 = load ptr, ptr %20, align 8, !tbaa !92
  %22 = call i32 @OBJ_obj2nid(ptr noundef %21)
  store i32 %22, ptr %8, align 4, !tbaa !35
  %23 = load ptr, ptr %6, align 8, !tbaa !79
  %24 = load i32, ptr %8, align 4, !tbaa !35
  %25 = call i32 @check_suite_b(ptr noundef %23, i32 noundef %24, ptr noundef %7)
  store i32 %25, ptr %4, align 4
  store i32 1, ptr %9, align 4
  br label %26

26:                                               ; preds = %14, %13
  call void @llvm.lifetime.end.p0(i64 4, ptr %8) #5
  %27 = load i32, ptr %4, align 4
  ret i32 %27
}