; Function Attrs: nounwind uwtable
define hidden range(i32 0, 61) i32 @X509_CRL_check_suiteb(ptr noundef readonly captures(none) %0, ptr noundef readonly captures(address_is_null) %1, i64 noundef %2) local_unnamed_addr #0 {
  %4 = and i64 %2, 196608
  %.not = icmp eq i64 %4, 0
  br i1 %.not, label %check_suite_b.exit, label %5

5:                                                ; preds = %3
  %6 = load ptr, ptr %0, align 8, !tbaa !43
  %7 = getelementptr inbounds nuw i8, ptr %6, i64 8
  %8 = load ptr, ptr %7, align 8, !tbaa !73
  %9 = load ptr, ptr %8, align 8, !tbaa !74
  %10 = tail call i32 @OBJ_obj2nid(ptr noundef %9) #8
  %.not.i = icmp eq ptr %1, null
  br i1 %.not.i, label %check_suite_b.exit, label %11

11:                                               ; preds = %5
  %12 = getelementptr inbounds nuw i8, ptr %1, i64 4
  %13 = load i32, ptr %12, align 4, !tbaa !67
  %14 = icmp eq i32 %13, 408
  br i1 %14, label %15, label %check_suite_b.exit

15:                                               ; preds = %11
  %16 = getelementptr inbounds nuw i8, ptr %1, i64 8
  %17 = load ptr, ptr %16, align 8, !tbaa !70
  %18 = tail call ptr @EC_KEY_get0_group(ptr noundef %17) #8
  %.not20.i = icmp eq ptr %18, null
  br i1 %.not20.i, label %check_suite_b.exit, label %19

19:                                               ; preds = %15
  %20 = tail call i32 @EC_GROUP_get_curve_name(ptr noundef nonnull %18) #8
  switch i32 %20, label %check_suite_b.exit [
    i32 715, label %21
    i32 415, label %24
  ]

21:                                               ; preds = %19
  switch i32 %10, label %check_suite_b.exit [
    i32 -1, label %22
    i32 795, label %22
  ]

22:                                               ; preds = %21, %21
  %23 = and i64 %2, 131072
  %.not22.i = icmp eq i64 %23, 0
  br i1 %.not22.i, label %check_suite_b.exit, label %27

24:                                               ; preds = %19
  switch i32 %10, label %check_suite_b.exit [
    i32 -1, label %25
    i32 794, label %25
  ]

25:                                               ; preds = %24, %24
  %26 = and i64 %2, 65536
  %.not21.i = icmp eq i64 %26, 0
  br i1 %.not21.i, label %check_suite_b.exit, label %27

27:                                               ; preds = %22, %25
  br label %check_suite_b.exit

check_suite_b.exit:                               ; preds = %27, %25, %24, %22, %21, %19, %15, %11, %5, %3
  %.0 = phi i32 [ 0, %3 ], [ 0, %27 ], [ 57, %15 ], [ 59, %21 ], [ 60, %22 ], [ 59, %24 ], [ 60, %25 ], [ 58, %19 ], [ 57, %11 ], [ 57, %5 ]
  ret i32 %.0
}